target datalayout = "e-m:e-p270:32:32-p271:32:32-p272:64:64-i64:64-i128:128-f80:128-n8:16:32:64-S128"
target triple = "x86_64-pc-linux-gnu"

%struct.parser_st_table = type { i8, i8, i8, i32, ptr, i64, ptr, i64, i64, ptr }
%struct.st_features = type { i8, i8, i8, i64 }

; Function Attrs: alwaysinline nounwind
define internal ptr @memset.inline(ptr nonnull %0, i32 %1, i64 %2) #11 {
  %4 = alloca ptr, align 8
  %5 = alloca i32, align 4
  %6 = alloca i64, align 8
  store ptr %0, ptr %4, align 8, !tbaa !49
  store i32 %1, ptr %5, align 4, !tbaa !16
  store i64 %2, ptr %6, align 8, !tbaa !14
  %7 = load ptr, ptr %4, align 8, !tbaa !49
  %8 = load i32, ptr %5, align 4, !tbaa !16
  %9 = load i64, ptr %6, align 8, !tbaa !14
  %10 = load ptr, ptr %4, align 8, !tbaa !49
  %11 = call i64 @llvm.objectsize.i64.p0(ptr %10, i1 false, i1 true, i1 false)
  %12 = call ptr @__memset_chk(ptr noundef %7, i32 noundef %8, i64 noundef %9, i64 noundef %11) #14
  ret ptr %12
}

; Function Attrs: inlinehint nounwind sspstrong uwtable
define internal i64 @bins_size(ptr noundef %0) #3 {
  %2 = alloca ptr, align 8
  store ptr %0, ptr %2, align 8, !tbaa !7
  %3 = load ptr, ptr %2, align 8, !tbaa !7
  %4 = getelementptr inbounds nuw %struct.parser_st_table, ptr %3, i32 0, i32 0
  %5 = load i8, ptr %4, align 8, !tbaa !22
  %6 = zext i8 %5 to i64
  %7 = getelementptr [63 x %struct.st_features], ptr @features, i64 0, i64 %6
  %8 = getelementptr inbounds nuw %struct.st_features, ptr %7, i32 0, i32 3
  %9 = load i64, ptr %8, align 8, !tbaa !31
  %10 = mul i64 %9, 8
  ret i64 %10
}

; Function Attrs: nounwind sspstrong uwtable
define internal void @initialize_bins(ptr noundef %0) #0 {
  %2 = alloca ptr, align 8
  store ptr %0, ptr %2, align 8, !tbaa !7
  %3 = load ptr, ptr %2, align 8, !tbaa !7
  %4 = getelementptr inbounds nuw %struct.parser_st_table, ptr %3, i32 0, i32 6
  %5 = load ptr, ptr %4, align 8, !tbaa !28
  %6 = load ptr, ptr %2, align 8, !tbaa !7
  %7 = call i64 @bins_size(ptr noundef %6)
  %8 = call ptr @memset.inline(ptr noundef %5, i32 noundef 0, i64 noundef %7) #14
  ret void
}

; Function Attrs: nounwind sspstrong uwtable
define internal void @make_tab_empty(ptr noundef %0) #0 {
  %2 = alloca ptr, align 8
  store ptr %0, ptr %2, align 8, !tbaa !7
  %3 = load ptr, ptr %2, align 8, !tbaa !7
  %4 = getelementptr inbounds nuw %struct.parser_st_table, ptr %3, i32 0, i32 5
  store i64 0, ptr %4, align 8, !tbaa !32
  %5 = load ptr, ptr %2, align 8, !tbaa !7
  %6 = getelementptr inbounds nuw %struct.parser_st_table, ptr %5, i32 0, i32 8
  store i64 0, ptr %6, align 8, !tbaa !33
  %7 = load ptr, ptr %2, align 8, !tbaa !7
  %8 = getelementptr inbounds nuw %struct.parser_st_table, ptr %7, i32 0, i32 7
  store i64 0, ptr %8, align 8, !tbaa !34
  %9 = load ptr, ptr %2, align 8, !tbaa !7
  %10 = getelementptr inbounds nuw %struct.parser_st_table, ptr %9, i32 0, i32 6
  %11 = load ptr, ptr %10, align 8, !tbaa !28
  %12 = icmp ne ptr %11, null
  br i1 %12, label %13, label %15

13:                                               ; preds = %1
  %14 = load ptr, ptr %2, align 8, !tbaa !7
  call void @initialize_bins(ptr noundef %14)
  br label %15

15:                                               ; preds = %13, %1
  ret void
}

; Function Attrs: nounwind sspstrong uwtable
define dso_local void @rb_parser_st_clear(ptr noundef %0) #0 {
  %2 = alloca ptr, align 8
  store ptr %0, ptr %2, align 8, !tbaa !7
  %3 = load ptr, ptr %2, align 8, !tbaa !7
  call void @make_tab_empty(ptr noundef %3)
  %4 = load ptr, ptr %2, align 8, !tbaa !7
  %5 = getelementptr inbounds nuw %struct.parser_st_table, ptr %4, i32 0, i32 3
  %6 = load i32, ptr %5, align 4, !tbaa !30
  %7 = add i32 %6, 1
  store i32 %7, ptr %5, align 4, !tbaa !30
  ret void
}